target datalayout = "e-m:e-p270:32:32-p271:32:32-p272:64:64-i64:64-i128:128-f80:128-n8:16:32:64-S128"
target triple = "x86_64-pc-linux-gnu"

%"class.std::__cxx11::basic_string" = type { %"struct.std::__cxx11::basic_string<char>::_Alloc_hider", i64, %union.anon.0 }
%"struct.std::__cxx11::basic_string<char>::_Alloc_hider" = type { ptr }
%union.anon.0 = type { i64, [8 x i8] }
%"class.LIEF::ELF::CorePrStatus" = type { %"class.LIEF::ELF::Note", i32, i32 }
%"class.LIEF::ELF::Note" = type { %"class.LIEF::Object", %"class.std::__cxx11::basic_string", i32, i32, %"class.std::vector.44" }
%"class.LIEF::Object" = type { ptr }
%"class.std::vector.44" = type { %"struct.std::_Vector_base.45" }
%"struct.std::_Vector_base.45" = type { %"struct.std::_Vector_base<unsigned char, std::allocator<unsigned char>>::_Vector_impl" }
%"struct.std::_Vector_base<unsigned char, std::allocator<unsigned char>>::_Vector_impl" = type { %"struct.std::_Vector_base<unsigned char, std::allocator<unsigned char>>::_Vector_impl_data" }
%"struct.std::_Vector_base<unsigned char, std::allocator<unsigned char>>::_Vector_impl_data" = type { ptr, ptr, ptr }
%"struct.LIEF::ELF::CorePrStatus::pr_status_t" = type { %"struct.LIEF::ELF::CorePrStatus::siginfo_t", i16, i16, i64, i64, i32, i32, i32, i32, %"struct.LIEF::ELF::CorePrStatus::timeval_t", %"struct.LIEF::ELF::CorePrStatus::timeval_t", %"struct.LIEF::ELF::CorePrStatus::timeval_t", %"struct.LIEF::ELF::CorePrStatus::timeval_t" }
%"struct.LIEF::ELF::CorePrStatus::siginfo_t" = type { i32, i32, i32 }
%"struct.LIEF::ELF::CorePrStatus::timeval_t" = type { i64, i64 }

; Function Attrs: mustprogress uwtable
define void @_ZNK4LIEF3ELF12CorePrStatus6statusEv(ptr dead_on_unwind noalias writable sret(%"struct.LIEF::ELF::CorePrStatus::pr_status_t") align 8 %0, ptr noundef nonnull align 8 dereferenceable(80) %1) #3 align 2 {
  %3 = alloca ptr, align 8
  store ptr %1, ptr %3, align 8
  %4 = load ptr, ptr %3, align 8
  %5 = getelementptr inbounds %"class.LIEF::ELF::CorePrStatus", ptr %4, i32 0, i32 2
  %6 = load i32, ptr %5, align 4
  %7 = icmp eq i32 %6, 1
  br i1 %7, label %8, label %10

8:                                                ; preds = %2
  %9 = getelementptr inbounds %"class.LIEF::ELF::Note", ptr %4, i32 0, i32 4
  call void @_ZN4LIEF3ELF15get_status_implINS0_7details5ELF32EEENS0_12CorePrStatus11pr_status_tERKSt6vectorIhSaIhEE(ptr dead_on_unwind writable sret(%"struct.LIEF::ELF::CorePrStatus::pr_status_t") align 8 %0, ptr noundef nonnull align 8 dereferenceable(24) %9)
  br label %12

10:                                               ; preds = %2
  %11 = getelementptr inbounds %"class.LIEF::ELF::Note", ptr %4, i32 0, i32 4
  call void @_ZN4LIEF3ELF15get_status_implINS0_7details5ELF64EEENS0_12CorePrStatus11pr_status_tERKSt6vectorIhSaIhEE(ptr dead_on_unwind writable sret(%"struct.LIEF::ELF::CorePrStatus::pr_status_t") align 8 %0, ptr noundef nonnull align 8 dereferenceable(24) %11)
  br label %12

12:                                               ; preds = %10, %8
  ret void
}