; Function Attrs: mustprogress uwtable
define void @_ZNK4LIEF3ELF12CorePrStatus6statusEv(ptr dead_on_unwind noalias writable sret(%"struct.LIEF::ELF::CorePrStatus::pr_status_t") align 8 %0, ptr noundef nonnull align 8 dereferenceable(80) %1) local_unnamed_addr #3 align 2 {
  %3 = getelementptr inbounds i8, ptr %1, i64 76
  %4 = load i32, ptr %3, align 4
  %5 = icmp eq i32 %4, 1
  %6 = getelementptr inbounds i8, ptr %1, i64 48
  br i1 %5, label %7, label %8

7:                                                ; preds = %2
  tail call void @_ZN4LIEF3ELF15get_status_implINS0_7details5ELF32EEENS0_12CorePrStatus11pr_status_tERKSt6vectorIhSaIhEE(ptr dead_on_unwind writable sret(%"struct.LIEF::ELF::CorePrStatus::pr_status_t") align 8 %0, ptr noundef nonnull align 8 dereferenceable(24) %6)
  br label %9

8:                                                ; preds = %2
  tail call void @_ZN4LIEF3ELF15get_status_implINS0_7details5ELF64EEENS0_12CorePrStatus11pr_status_tERKSt6vectorIhSaIhEE(ptr dead_on_unwind writable sret(%"struct.LIEF::ELF::CorePrStatus::pr_status_t") align 8 %0, ptr noundef nonnull align 8 dereferenceable(24) %6)
  br label %9

9:                                                ; preds = %8, %7
  ret void
}